; Function Attrs: nounwind uwtable
define range(i64 0, 4294967296) i64 @lv_fragment_manager_get_stack_size(ptr noundef %0) local_unnamed_addr #0 {
  %.not = icmp eq ptr %0, null
  br i1 %.not, label %.preheader, label %2

.preheader:                                       ; preds = %1, %.preheader
  br label %.preheader

2:                                                ; preds = %1
  %3 = getelementptr inbounds nuw i8, ptr %0, i64 32
  %4 = tail call i32 @lv_ll_get_len(ptr noundef nonnull %3) #3
  %5 = zext i32 %4 to i64
  ret i64 %5
}